; Function Attrs: mustprogress nofree norecurse nosync nounwind willreturn memory(read, inaccessiblemem: none) uwtable
define dso_local noundef zeroext i1 @_ZNK4llvm8DWARFDie15isSubroutineDIEEv(ptr noundef nonnull readonly align 8 captures(none) dereferenceable(16) %0) local_unnamed_addr #1 align 2 {
  %2 = getelementptr inbounds nuw i8, ptr %0, i64 8
  %3 = load ptr, ptr %2, align 8
  %4 = getelementptr inbounds nuw i8, ptr %3, i64 16
  %5 = load ptr, ptr %4, align 8
  %.not.i = icmp eq ptr %5, null
  br i1 %.not.i, label %_ZNK4llvm8DWARFDie6getTagEv.exit, label %6

6:                                                ; preds = %1
  %7 = getelementptr inbounds nuw i8, ptr %5, i64 4
  %8 = load i16, ptr %7, align 4
  br label %_ZNK4llvm8DWARFDie6getTagEv.exit

_ZNK4llvm8DWARFDie6getTagEv.exit:                 ; preds = %1, %6
  %.0.i = phi i16 [ %8, %6 ], [ 0, %1 ]
  %9 = icmp eq i16 %.0.i, 46
  %10 = icmp eq i16 %.0.i, 29
  %11 = or i1 %9, %10
  ret i1 %11
}